; Function Attrs: mustprogress nounwind uwtable
define void @_ZN25DecoratorParamsTreeWidgetD2Ev(ptr noundef nonnull align 8 dereferenceable(120) %0) unnamed_addr #0 align 2 {
  store ptr getelementptr inbounds ({ [54 x ptr], [10 x ptr] }, ptr @_ZTV25DecoratorParamsTreeWidget, i64 0, i32 0, i64 2), ptr %0, align 8
  %2 = getelementptr inbounds i8, ptr %0, i64 16
  store ptr getelementptr inbounds ({ [54 x ptr], [10 x ptr] }, ptr @_ZTV25DecoratorParamsTreeWidget, i64 0, i32 1, i64 2), ptr %2, align 8
  %3 = getelementptr inbounds i8, ptr %0, i64 88
  %4 = load ptr, ptr %3, align 8
  %5 = icmp eq ptr %4, null
  br i1 %5, label %10, label %6

6:                                                ; preds = %1
  %7 = load ptr, ptr %4, align 8
  %8 = getelementptr inbounds i8, ptr %7, i64 32
  %9 = load ptr, ptr %8, align 8
  tail call void %9(ptr noundef nonnull align 8 dereferenceable(48) %4) #22
  br label %10

10:                                               ; preds = %6, %1
  %11 = getelementptr inbounds i8, ptr %0, i64 96
  %12 = load ptr, ptr %11, align 8
  %13 = icmp eq ptr %12, null
  br i1 %13, label %18, label %14

14:                                               ; preds = %10
  %15 = load ptr, ptr %12, align 8
  %16 = getelementptr inbounds i8, ptr %15, i64 32
  %17 = load ptr, ptr %16, align 8
  tail call void %17(ptr noundef nonnull align 8 dereferenceable(48) %12) #22
  br label %18

18:                                               ; preds = %14, %10
  %19 = getelementptr inbounds i8, ptr %0, i64 104
  %20 = load ptr, ptr %19, align 8
  %21 = icmp eq ptr %20, null
  br i1 %21, label %26, label %22

22:                                               ; preds = %18
  %23 = load ptr, ptr %20, align 8
  %24 = getelementptr inbounds i8, ptr %23, i64 32
  %25 = load ptr, ptr %24, align 8
  tail call void %25(ptr noundef nonnull align 8 dereferenceable(48) %20) #22
  br label %26

26:                                               ; preds = %22, %18
  %27 = getelementptr inbounds i8, ptr %0, i64 56
  %28 = load ptr, ptr %27, align 8
  %29 = icmp eq ptr %28, null
  br i1 %29, label %34, label %30

30:                                               ; preds = %26
  %31 = load ptr, ptr %28, align 8
  %32 = getelementptr inbounds i8, ptr %31, i64 32
  %33 = load ptr, ptr %32, align 8
  tail call void %33(ptr noundef nonnull align 8 dereferenceable(200) %28) #22
  br label %34

34:                                               ; preds = %30, %26
  %35 = getelementptr inbounds i8, ptr %0, i64 112
  %36 = load ptr, ptr %35, align 8
  %37 = icmp eq ptr %36, null
  br i1 %37, label %42, label %38

38:                                               ; preds = %34
  %39 = load ptr, ptr %36, align 8
  %40 = getelementptr inbounds i8, ptr %39, i64 32
  %41 = load ptr, ptr %40, align 8
  tail call void %41(ptr noundef nonnull align 8 dereferenceable(28) %36) #22
  br label %42

42:                                               ; preds = %38, %34
  %43 = getelementptr inbounds i8, ptr %0, i64 64
  tail call void @_ZN17RichParameterListD1Ev(ptr noundef nonnull align 8 dereferenceable(24) %43) #22
  tail call void @_ZN6QFrameD2Ev(ptr noundef nonnull align 8 dereferenceable(48) %0) #22
  ret void
}